target datalayout = "e-m:e-p270:32:32-p271:32:32-p272:64:64-i64:64-i128:128-f80:128-n8:16:32:64-S128"
target triple = "x86_64-pc-linux-gnu"

@.str.1 = private unnamed_addr constant [13 x i8] c"auth-scram.c\00", align 1
@.str.11 = private unnamed_addr constant [24 x i8] c"malformed SCRAM message\00", align 1
@.str.30 = private unnamed_addr constant [43 x i8] c"Expected character \22=\22 for attribute \22%c\22.\00", align 1
@.str.31 = private unnamed_addr constant [45 x i8] c"Attribute expected, but found end of string.\00", align 1
@__func__.read_any_attr = private unnamed_addr constant [14 x i8] c"read_any_attr\00", align 1
@.str.32 = private unnamed_addr constant [54 x i8] c"Attribute expected, but found invalid character \22%s\22.\00", align 1

; Function Attrs: nounwind uwtable
define internal ptr @read_any_attr(ptr noundef %0, ptr noundef %1) #0 {
  %3 = alloca ptr, align 8
  %4 = alloca ptr, align 8
  %5 = alloca ptr, align 8
  %6 = alloca ptr, align 8
  %7 = alloca i8, align 1
  store ptr %0, ptr %3, align 8
  store ptr %1, ptr %4, align 8
  call void @llvm.lifetime.start.p0(i64 8, ptr %5) #9
  %8 = load ptr, ptr %3, align 8
  %9 = load ptr, ptr %8, align 8
  store ptr %9, ptr %5, align 8
  call void @llvm.lifetime.start.p0(i64 8, ptr %6) #9
  call void @llvm.lifetime.start.p0(i64 1, ptr %7) #9
  %10 = load ptr, ptr %5, align 8
  %11 = load i8, ptr %10, align 1
  store i8 %11, ptr %7, align 1
  %12 = load i8, ptr %7, align 1
  %13 = sext i8 %12 to i32
  %14 = icmp eq i32 %13, 0
  br i1 %14, label %15, label %28

15:                                               ; preds = %2
  br label %16

16:                                               ; preds = %15
  br i1 true, label %17, label %19

17:                                               ; preds = %16
  %18 = call zeroext i1 @errstart_cold(i32 noundef 21, ptr noundef null) #11
  br i1 %18, label %21, label %25

19:                                               ; preds = %16
  %20 = call zeroext i1 @errstart(i32 noundef 21, ptr noundef null)
  br i1 %20, label %21, label %25

21:                                               ; preds = %19, %17
  %22 = call i32 @errcode(i32 noundef 16908800)
  %23 = call i32 (ptr, ...) @errmsg(ptr noundef @.str.11)
  %24 = call i32 (ptr, ...) @errdetail(ptr noundef @.str.31)
  call void @errfinish(ptr noundef @.str.1, i32 noundef 865, ptr noundef @__func__.read_any_attr)
  br label %25

25:                                               ; preds = %21, %19, %17
  unreachable

26:                                               ; No predecessors!
  br label %27

27:                                               ; preds = %26
  br label %28

28:                                               ; preds = %27, %2
  %29 = load i8, ptr %7, align 1
  %30 = sext i8 %29 to i32
  %31 = icmp sge i32 %30, 65
  br i1 %31, label %32, label %36

32:                                               ; preds = %28
  %33 = load i8, ptr %7, align 1
  %34 = sext i8 %33 to i32
  %35 = icmp sle i32 %34, 90
  br i1 %35, label %59, label %36

36:                                               ; preds = %32, %28
  %37 = load i8, ptr %7, align 1
  %38 = sext i8 %37 to i32
  %39 = icmp sge i32 %38, 97
  br i1 %39, label %40, label %44

40:                                               ; preds = %36
  %41 = load i8, ptr %7, align 1
  %42 = sext i8 %41 to i32
  %43 = icmp sle i32 %42, 122
  br i1 %43, label %59, label %44

44:                                               ; preds = %40, %36
  br label %45

45:                                               ; preds = %44
  br i1 true, label %46, label %48

46:                                               ; preds = %45
  %47 = call zeroext i1 @errstart_cold(i32 noundef 21, ptr noundef null) #11
  br i1 %47, label %50, label %56

48:                                               ; preds = %45
  %49 = call zeroext i1 @errstart(i32 noundef 21, ptr noundef null)
  br i1 %49, label %50, label %56

50:                                               ; preds = %48, %46
  %51 = call i32 @errcode(i32 noundef 16908800)
  %52 = call i32 (ptr, ...) @errmsg(ptr noundef @.str.11)
  %53 = load i8, ptr %7, align 1
  %54 = call ptr @sanitize_char(i8 noundef signext %53)
  %55 = call i32 (ptr, ...) @errdetail(ptr noundef @.str.32, ptr noundef %54)
  call void @errfinish(ptr noundef @.str.1, i32 noundef 879, ptr noundef @__func__.read_any_attr)
  br label %56

56:                                               ; preds = %50, %48, %46
  unreachable

57:                                               ; No predecessors!
  br label %58

58:                                               ; preds = %57
  br label %59

59:                                               ; preds = %58, %40, %32
  %60 = load ptr, ptr %4, align 8
  %61 = icmp ne ptr %60, null
  br i1 %61, label %62, label %65

62:                                               ; preds = %59
  %63 = load i8, ptr %7, align 1
  %64 = load ptr, ptr %4, align 8
  store i8 %63, ptr %64, align 1
  br label %65

65:                                               ; preds = %62, %59
  %66 = load ptr, ptr %5, align 8
  %67 = getelementptr inbounds nuw i8, ptr %66, i32 1
  store ptr %67, ptr %5, align 8
  %68 = load ptr, ptr %5, align 8
  %69 = load i8, ptr %68, align 1
  %70 = sext i8 %69 to i32
  %71 = icmp ne i32 %70, 61
  br i1 %71, label %72, label %87

72:                                               ; preds = %65
  br label %73

73:                                               ; preds = %72
  br i1 true, label %74, label %76

74:                                               ; preds = %73
  %75 = call zeroext i1 @errstart_cold(i32 noundef 21, ptr noundef null) #11
  br i1 %75, label %78, label %84

76:                                               ; preds = %73
  %77 = call zeroext i1 @errstart(i32 noundef 21, ptr noundef null)
  br i1 %77, label %78, label %84

78:                                               ; preds = %76, %74
  %79 = call i32 @errcode(i32 noundef 16908800)
  %80 = call i32 (ptr, ...) @errmsg(ptr noundef @.str.11)
  %81 = load i8, ptr %7, align 1
  %82 = sext i8 %81 to i32
  %83 = call i32 (ptr, ...) @errdetail(ptr noundef @.str.30, i32 noundef %82)
  call void @errfinish(ptr noundef @.str.1, i32 noundef 888, ptr noundef @__func__.read_any_attr)
  br label %84

84:                                               ; preds = %78, %76, %74
  unreachable

85:                                               ; No predecessors!
  br label %86

86:                                               ; preds = %85
  br label %87

87:                                               ; preds = %86, %65
  %88 = load ptr, ptr %5, align 8
  %89 = getelementptr inbounds nuw i8, ptr %88, i32 1
  store ptr %89, ptr %5, align 8
  %90 = load ptr, ptr %5, align 8
  store ptr %90, ptr %6, align 8
  br label %91

91:                                               ; preds = %103, %87
  %92 = load ptr, ptr %6, align 8
  %93 = load i8, ptr %92, align 1
  %94 = sext i8 %93 to i32
  %95 = icmp ne i32 %94, 0
  br i1 %95, label %96, label %101

96:                                               ; preds = %91
  %97 = load ptr, ptr %6, align 8
  %98 = load i8, ptr %97, align 1
  %99 = sext i8 %98 to i32
  %100 = icmp ne i32 %99, 44
  br label %101

101:                                              ; preds = %96, %91
  %102 = phi i1 [ false, %91 ], [ %100, %96 ]
  br i1 %102, label %103, label %106

103:                                              ; preds = %101
  %104 = load ptr, ptr %6, align 8
  %105 = getelementptr inbounds nuw i8, ptr %104, i32 1
  store ptr %105, ptr %6, align 8
  br label %91, !llvm.loop !13

106:                                              ; preds = %101
  %107 = load ptr, ptr %6, align 8
  %108 = load i8, ptr %107, align 1
  %109 = icmp ne i8 %108, 0
  br i1 %109, label %110, label %115

110:                                              ; preds = %106
  %111 = load ptr, ptr %6, align 8
  store i8 0, ptr %111, align 1
  %112 = load ptr, ptr %6, align 8
  %113 = getelementptr inbounds i8, ptr %112, i64 1
  %114 = load ptr, ptr %3, align 8
  store ptr %113, ptr %114, align 8
  br label %118

115:                                              ; preds = %106
  %116 = load ptr, ptr %6, align 8
  %117 = load ptr, ptr %3, align 8
  store ptr %116, ptr %117, align 8
  br label %118

118:                                              ; preds = %115, %110
  %119 = load ptr, ptr %5, align 8
  call void @llvm.lifetime.end.p0(i64 1, ptr %7) #9
  call void @llvm.lifetime.end.p0(i64 8, ptr %6) #9
  call void @llvm.lifetime.end.p0(i64 8, ptr %5) #9
  ret ptr %119
}