; Function Attrs: nounwind uwtable
define internal fastcc nonnull ptr @read_any_attr(ptr noundef nonnull captures(none) %0, ptr noundef writeonly captures(address_is_null) %1) unnamed_addr #0 {
  %3 = load ptr, ptr %0, align 8
  %4 = load i8, ptr %3, align 1
  %5 = icmp eq i8 %4, 0
  br i1 %5, label %6, label %11

6:                                                ; preds = %2
  %7 = tail call zeroext i1 @errstart_cold(i32 noundef 21, ptr noundef null) #15
  tail call void @llvm.assume(i1 %7)
  %8 = tail call i32 @errcode(i32 noundef 16908800) #13
  %9 = tail call i32 (ptr, ...) @errmsg(ptr noundef nonnull @.str.11) #13
  %10 = tail call i32 (ptr, ...) @errdetail(ptr noundef nonnull @.str.31) #13
  tail call void @errfinish(ptr noundef nonnull @.str.1, i32 noundef 865, ptr noundef nonnull @__func__.read_any_attr) #13
  unreachable

11:                                               ; preds = %2
  %12 = and i8 %4, -33
  %13 = add i8 %12, -65
  %or.cond37 = icmp ult i8 %13, 26
  br i1 %or.cond37, label %19, label %14

14:                                               ; preds = %11
  %15 = tail call zeroext i1 @errstart_cold(i32 noundef 21, ptr noundef null) #15
  tail call void @llvm.assume(i1 %15)
  %16 = tail call i32 @errcode(i32 noundef 16908800) #13
  %17 = tail call i32 (ptr, ...) @errmsg(ptr noundef nonnull @.str.11) #13
  tail call fastcc void @sanitize_char(i8 noundef signext %4)
  %18 = tail call i32 (ptr, ...) @errdetail(ptr noundef nonnull @.str.32, ptr noundef nonnull @sanitize_char.buf) #13
  tail call void @errfinish(ptr noundef nonnull @.str.1, i32 noundef 879, ptr noundef nonnull @__func__.read_any_attr) #13
  unreachable

19:                                               ; preds = %11
  %.not = icmp eq ptr %1, null
  br i1 %.not, label %21, label %20

20:                                               ; preds = %19
  store i8 %4, ptr %1, align 1
  br label %21

21:                                               ; preds = %20, %19
  %22 = getelementptr inbounds nuw i8, ptr %3, i64 1
  %23 = load i8, ptr %22, align 1
  %.not33 = icmp eq i8 %23, 61
  br i1 %.not33, label %30, label %24

24:                                               ; preds = %21
  %25 = zext nneg i8 %4 to i32
  %26 = tail call zeroext i1 @errstart_cold(i32 noundef 21, ptr noundef null) #15
  tail call void @llvm.assume(i1 %26)
  %27 = tail call i32 @errcode(i32 noundef 16908800) #13
  %28 = tail call i32 (ptr, ...) @errmsg(ptr noundef nonnull @.str.11) #13
  %29 = tail call i32 (ptr, ...) @errdetail(ptr noundef nonnull @.str.30, i32 noundef %25) #13
  tail call void @errfinish(ptr noundef nonnull @.str.1, i32 noundef 888, ptr noundef nonnull @__func__.read_any_attr) #13
  unreachable

30:                                               ; preds = %21
  %31 = getelementptr inbounds nuw i8, ptr %3, i64 2
  br label %32

32:                                               ; preds = %34, %30
  %.0 = phi ptr [ %31, %30 ], [ %35, %34 ]
  %33 = load i8, ptr %.0, align 1
  switch i8 %33, label %34 [
    i8 0, label %.loopexit
    i8 44, label %36
  ]

34:                                               ; preds = %32
  %35 = getelementptr inbounds nuw i8, ptr %.0, i64 1
  br label %32, !llvm.loop !13

36:                                               ; preds = %32
  store i8 0, ptr %.0, align 1
  %37 = getelementptr inbounds nuw i8, ptr %.0, i64 1
  br label %.loopexit

.loopexit:                                        ; preds = %32, %36
  %storemerge = phi ptr [ %37, %36 ], [ %.0, %32 ]
  store ptr %storemerge, ptr %0, align 8
  ret ptr %31
}